; Function Attrs: nounwind uwtable
define internal fastcc range(i32 0, 2) i32 @Abc_NodeIsTravIdCurrent(ptr noundef readonly captures(none) %0) unnamed_addr #0 {
  %.val2 = load ptr, ptr %0, align 8
  %2 = getelementptr i8, ptr %0, i64 16
  %.val3 = load i32, ptr %2, align 8
  %3 = getelementptr inbounds nuw i8, ptr %.val2, i64 224
  %4 = add nsw i32 %.val3, 1
  tail call fastcc void @Vec_IntFillExtra(ptr noundef nonnull %3, i32 noundef %4)
  %5 = getelementptr i8, ptr %.val2, i64 232
  %.val.i.i = load ptr, ptr %5, align 8
  %6 = sext i32 %.val3 to i64
  %7 = getelementptr inbounds i32, ptr %.val.i.i, i64 %6
  %8 = load i32, ptr %7, align 4
  %.val = load ptr, ptr %0, align 8
  %9 = getelementptr inbounds nuw i8, ptr %.val, i64 216
  %10 = load i32, ptr %9, align 8
  %11 = icmp eq i32 %8, %10
  %12 = zext i1 %11 to i32
  ret i32 %12
}